; Function Attrs: mustprogress uwtable
define dso_local noundef ptr @stbi_loadf(ptr noundef readonly captures(none) %0, ptr noundef captures(none) %1, ptr noundef captures(none) %2, ptr noundef %3, i32 noundef %4) local_unnamed_addr #4 {
  %6 = alloca %struct.stbi__context, align 8
  %7 = tail call noalias noundef ptr @fopen(ptr noundef readonly %0, ptr noundef nonnull @.str)
  %.not = icmp eq ptr %7, null
  br i1 %.not, label %8, label %9

8:                                                ; preds = %5
  store ptr @.str.1, ptr @_ZL22stbi__g_failure_reason, align 8, !tbaa !5
  br label %38

9:                                                ; preds = %5
  call void @llvm.lifetime.start.p0(i64 224, ptr nonnull %6) #35
  %10 = getelementptr inbounds nuw i8, ptr %6, i64 16
  call void @llvm.memcpy.p0.p0.i64(ptr noundef nonnull align 8 dereferenceable(24) %10, ptr noundef nonnull align 8 dereferenceable(24) @_ZL21stbi__stdio_callbacks, i64 24, i1 false), !tbaa.struct !12
  %11 = getelementptr inbounds nuw i8, ptr %6, i64 40
  store ptr %7, ptr %11, align 8, !tbaa !14
  %12 = getelementptr inbounds nuw i8, ptr %6, i64 52
  store i32 128, ptr %12, align 4, !tbaa !17
  %13 = getelementptr inbounds nuw i8, ptr %6, i64 48
  store i32 1, ptr %13, align 8, !tbaa !18
  %14 = getelementptr inbounds nuw i8, ptr %6, i64 184
  store i32 0, ptr %14, align 8, !tbaa !19
  %15 = getelementptr inbounds nuw i8, ptr %6, i64 56
  %16 = getelementptr inbounds nuw i8, ptr %6, i64 208
  store ptr %15, ptr %16, align 8, !tbaa !20
  %17 = getelementptr inbounds nuw i8, ptr %6, i64 192
  store ptr %15, ptr %17, align 8, !tbaa !21
  %18 = load ptr, ptr %10, align 8, !tbaa !22
  %19 = call noundef i32 %18(ptr noundef nonnull %7, ptr noundef nonnull %15, i32 noundef 128)
  %20 = load ptr, ptr %17, align 8, !tbaa !21
  %21 = load ptr, ptr %16, align 8, !tbaa !20
  %22 = ptrtoint ptr %20 to i64
  %23 = ptrtoint ptr %21 to i64
  %24 = sub i64 %22, %23
  %25 = trunc i64 %24 to i32
  %26 = load i32, ptr %14, align 8, !tbaa !19
  %27 = add nsw i32 %26, %25
  store i32 %27, ptr %14, align 8, !tbaa !19
  %28 = icmp eq i32 %19, 0
  br i1 %28, label %29, label %31

29:                                               ; preds = %9
  store i32 0, ptr %13, align 8, !tbaa !18
  %30 = getelementptr inbounds nuw i8, ptr %6, i64 57
  store i8 0, ptr %15, align 8, !tbaa !23
  br label %stbi_loadf_from_file.exit

31:                                               ; preds = %9
  %32 = sext i32 %19 to i64
  %33 = getelementptr inbounds i8, ptr %15, i64 %32
  br label %stbi_loadf_from_file.exit

stbi_loadf_from_file.exit:                        ; preds = %29, %31
  %.sink.i.i.i.i = phi ptr [ %30, %29 ], [ %33, %31 ]
  store ptr %15, ptr %17, align 8, !tbaa !21
  %34 = getelementptr inbounds nuw i8, ptr %6, i64 200
  store ptr %.sink.i.i.i.i, ptr %34, align 8, !tbaa !24
  %35 = getelementptr inbounds nuw i8, ptr %6, i64 216
  store ptr %.sink.i.i.i.i, ptr %35, align 8, !tbaa !25
  %36 = call fastcc noundef ptr @_ZL16stbi__loadf_mainP13stbi__contextPiS1_S1_i(ptr noundef %6, ptr noundef %1, ptr noundef %2, ptr noundef %3, i32 noundef %4)
  call void @llvm.lifetime.end.p0(i64 224, ptr nonnull %6) #35
  %37 = call i32 @fclose(ptr noundef nonnull %7)
  br label %38

38:                                               ; preds = %stbi_loadf_from_file.exit, %8
  %.0 = phi ptr [ %36, %stbi_loadf_from_file.exit ], [ null, %8 ]
  ret ptr %.0
}